target datalayout = "e-m:e-p270:32:32-p271:32:32-p272:64:64-i64:64-i128:128-f80:128-n8:16:32:64-S128"
target triple = "x86_64-pc-linux-gnu"

%"class.nix::AutoCloseFD" = type { i32 }
%"class.nix::Pipe" = type { %"class.nix::AutoCloseFD", %"class.nix::AutoCloseFD" }

@_ZTIN3nix8SysErrorE = linkonce_odr constant { ptr, ptr, ptr } { ptr getelementptr inbounds (ptr, ptr @_ZTVN10__cxxabiv120__si_class_type_infoE, i64 2), ptr @_ZTSN3nix8SysErrorE, ptr @_ZTIN3nix11SystemErrorE }, comdat, align 8
@.str.9 = private unnamed_addr constant [28 x i8] c"closing file descriptor %1%\00", align 1
@.str.11 = private unnamed_addr constant [14 x i8] c"creating pipe\00", align 1
@_ZN3nix11AutoCloseFDC1Ei = unnamed_addr alias void (ptr, i32), ptr @_ZN3nix11AutoCloseFDC2Ei
@_ZN3nix11AutoCloseFDD1Ev = unnamed_addr alias void (ptr), ptr @_ZN3nix11AutoCloseFDD2Ev

; Function Attrs: mustprogress uwtable
define linkonce_odr void @_ZN3nix8SysErrorC2IJA28_ciEEEDpRKT_(ptr noundef nonnull align 8 dereferenceable(380) %0, ptr noundef nonnull align 1 dereferenceable(28) %1, ptr noundef nonnull align 4 dereferenceable(4) %2) unnamed_addr #3 comdat align 2 {
  %4 = alloca ptr, align 8
  %5 = alloca ptr, align 8
  %6 = alloca ptr, align 8
  store ptr %0, ptr %4, align 8
  store ptr %1, ptr %5, align 8
  store ptr %2, ptr %6, align 8
  %7 = load ptr, ptr %4, align 8
  %8 = call ptr @__errno_location() #20
  %9 = load i32, ptr %8, align 4
  %10 = load ptr, ptr %5, align 8
  %11 = load ptr, ptr %6, align 8
  call void @_ZN3nix8SysErrorC2IJA28_ciEEEiDpRKT_(ptr noundef nonnull align 8 dereferenceable(380) %7, i32 noundef %9, ptr noundef nonnull align 1 dereferenceable(28) %10, ptr noundef nonnull align 4 dereferenceable(4) %11)
  ret void
}

; Function Attrs: mustprogress uwtable
define void @_ZN3nix11AutoCloseFD5closeEv(ptr noundef nonnull align 4 dereferenceable(4) %0) #3 align 2 personality ptr @__gxx_personality_v0 {
  %2 = alloca ptr, align 8
  %3 = alloca ptr, align 8
  %4 = alloca i32, align 4
  store ptr %0, ptr %2, align 8
  %5 = load ptr, ptr %2, align 8
  %6 = getelementptr inbounds %"class.nix::AutoCloseFD", ptr %5, i32 0, i32 0
  %7 = load i32, ptr %6, align 4
  %8 = icmp ne i32 %7, -1
  br i1 %8, label %9, label %24

9:                                                ; preds = %1
  %10 = getelementptr inbounds %"class.nix::AutoCloseFD", ptr %5, i32 0, i32 0
  %11 = load i32, ptr %10, align 4
  %12 = call i32 @close(i32 noundef %11)
  %13 = icmp eq i32 %12, -1
  br i1 %13, label %14, label %22

14:                                               ; preds = %9
  %15 = call ptr @__cxa_allocate_exception(i64 384) #1
  %16 = getelementptr inbounds %"class.nix::AutoCloseFD", ptr %5, i32 0, i32 0
  invoke void @_ZN3nix8SysErrorC2IJA28_ciEEEDpRKT_(ptr noundef nonnull align 8 dereferenceable(380) %15, ptr noundef nonnull align 1 dereferenceable(28) @.str.9, ptr noundef nonnull align 4 dereferenceable(4) %16)
          to label %17 unwind label %18

17:                                               ; preds = %14
  call void @__cxa_throw(ptr %15, ptr @_ZTIN3nix8SysErrorE, ptr @_ZN3nix8SysErrorD2Ev) #19
  unreachable

18:                                               ; preds = %14
  %19 = landingpad { ptr, i32 }
          cleanup
  %20 = extractvalue { ptr, i32 } %19, 0
  store ptr %20, ptr %3, align 8
  %21 = extractvalue { ptr, i32 } %19, 1
  store i32 %21, ptr %4, align 4
  call void @__cxa_free_exception(ptr %15) #1
  br label %25

22:                                               ; preds = %9
  %23 = getelementptr inbounds %"class.nix::AutoCloseFD", ptr %5, i32 0, i32 0
  store i32 -1, ptr %23, align 4
  br label %24

24:                                               ; preds = %22, %1
  ret void

25:                                               ; preds = %18
  %26 = load ptr, ptr %3, align 8
  %27 = load i32, ptr %4, align 4
  %28 = insertvalue { ptr, i32 } poison, ptr %26, 0
  %29 = insertvalue { ptr, i32 } %28, i32 %27, 1
  resume { ptr, i32 } %29
}

; Function Attrs: mustprogress uwtable
define noundef nonnull align 4 dereferenceable(4) ptr @_ZN3nix11AutoCloseFDaSEOS0_(ptr noundef nonnull align 4 dereferenceable(4) %0, ptr noundef nonnull align 4 dereferenceable(4) %1) #3 align 2 {
  %3 = alloca ptr, align 8
  %4 = alloca ptr, align 8
  store ptr %0, ptr %3, align 8
  store ptr %1, ptr %4, align 8
  %5 = load ptr, ptr %3, align 8
  call void @_ZN3nix11AutoCloseFD5closeEv(ptr noundef nonnull align 4 dereferenceable(4) %5)
  %6 = load ptr, ptr %4, align 8
  %7 = getelementptr inbounds %"class.nix::AutoCloseFD", ptr %6, i32 0, i32 0
  %8 = load i32, ptr %7, align 4
  %9 = getelementptr inbounds %"class.nix::AutoCloseFD", ptr %5, i32 0, i32 0
  store i32 %8, ptr %9, align 4
  %10 = load ptr, ptr %4, align 8
  %11 = getelementptr inbounds %"class.nix::AutoCloseFD", ptr %10, i32 0, i32 0
  store i32 -1, ptr %11, align 4
  ret ptr %5
}

; Function Attrs: mustprogress uwtable
define void @_ZN3nix4Pipe6createEv(ptr noundef nonnull align 4 dereferenceable(8) %0) #3 align 2 personality ptr @__gxx_personality_v0 {
  %2 = alloca ptr, align 8
  %3 = alloca [2 x i32], align 4
  %4 = alloca ptr, align 8
  %5 = alloca i32, align 4
  %6 = alloca %"class.nix::AutoCloseFD", align 4
  %7 = alloca %"class.nix::AutoCloseFD", align 4
  store ptr %0, ptr %2, align 8
  %8 = load ptr, ptr %2, align 8
  %9 = getelementptr inbounds [2 x i32], ptr %3, i64 0, i64 0
  %10 = call i32 @pipe2(ptr noundef %9, i32 noundef 524288) #1
  %11 = icmp ne i32 %10, 0
  br i1 %11, label %12, label %19

12:                                               ; preds = %1
  %13 = call ptr @__cxa_allocate_exception(i64 384) #1
  invoke void @_ZN3nix8SysErrorC2IJA14_cEEEDpRKT_(ptr noundef nonnull align 8 dereferenceable(380) %13, ptr noundef nonnull align 1 dereferenceable(14) @.str.11)
          to label %14 unwind label %15

14:                                               ; preds = %12
  call void @__cxa_throw(ptr %13, ptr @_ZTIN3nix8SysErrorE, ptr @_ZN3nix8SysErrorD2Ev) #19
  unreachable

15:                                               ; preds = %12
  %16 = landingpad { ptr, i32 }
          cleanup
  %17 = extractvalue { ptr, i32 } %16, 0
  store ptr %17, ptr %4, align 8
  %18 = extractvalue { ptr, i32 } %16, 1
  store i32 %18, ptr %5, align 4
  call void @__cxa_free_exception(ptr %13) #1
  br label %38

19:                                               ; preds = %1
  %20 = getelementptr inbounds [2 x i32], ptr %3, i64 0, i64 0
  %21 = load i32, ptr %20, align 4
  call void @_ZN3nix11AutoCloseFDC1Ei(ptr noundef nonnull align 4 dereferenceable(4) %6, i32 noundef %21)
  %22 = getelementptr inbounds %"class.nix::Pipe", ptr %8, i32 0, i32 0
  %23 = invoke noundef nonnull align 4 dereferenceable(4) ptr @_ZN3nix11AutoCloseFDaSEOS0_(ptr noundef nonnull align 4 dereferenceable(4) %22, ptr noundef nonnull align 4 dereferenceable(4) %6)
          to label %24 unwind label %30

24:                                               ; preds = %19
  call void @_ZN3nix11AutoCloseFDD1Ev(ptr noundef nonnull align 4 dereferenceable(4) %6) #1
  %25 = getelementptr inbounds [2 x i32], ptr %3, i64 0, i64 1
  %26 = load i32, ptr %25, align 4
  call void @_ZN3nix11AutoCloseFDC1Ei(ptr noundef nonnull align 4 dereferenceable(4) %7, i32 noundef %26)
  %27 = getelementptr inbounds %"class.nix::Pipe", ptr %8, i32 0, i32 1
  %28 = invoke noundef nonnull align 4 dereferenceable(4) ptr @_ZN3nix11AutoCloseFDaSEOS0_(ptr noundef nonnull align 4 dereferenceable(4) %27, ptr noundef nonnull align 4 dereferenceable(4) %7)
          to label %29 unwind label %34

29:                                               ; preds = %24
  call void @_ZN3nix11AutoCloseFDD1Ev(ptr noundef nonnull align 4 dereferenceable(4) %7) #1
  ret void

30:                                               ; preds = %19
  %31 = landingpad { ptr, i32 }
          cleanup
  %32 = extractvalue { ptr, i32 } %31, 0
  store ptr %32, ptr %4, align 8
  %33 = extractvalue { ptr, i32 } %31, 1
  store i32 %33, ptr %5, align 4
  call void @_ZN3nix11AutoCloseFDD1Ev(ptr noundef nonnull align 4 dereferenceable(4) %6) #1
  br label %38

34:                                               ; preds = %24
  %35 = landingpad { ptr, i32 }
          cleanup
  %36 = extractvalue { ptr, i32 } %35, 0
  store ptr %36, ptr %4, align 8
  %37 = extractvalue { ptr, i32 } %35, 1
  store i32 %37, ptr %5, align 4
  call void @_ZN3nix11AutoCloseFDD1Ev(ptr noundef nonnull align 4 dereferenceable(4) %7) #1
  br label %38

38:                                               ; preds = %34, %30, %15
  %39 = load ptr, ptr %4, align 8
  %40 = load i32, ptr %5, align 4
  %41 = insertvalue { ptr, i32 } poison, ptr %39, 0
  %42 = insertvalue { ptr, i32 } %41, i32 %40, 1
  resume { ptr, i32 } %42
}