; Function Attrs: mustprogress uwtable
define void @_ZN3nix4Pipe6createEv(ptr noundef nonnull align 4 dereferenceable(8) %0) local_unnamed_addr #2 align 2 personality ptr @__gxx_personality_v0 {
  %2 = alloca [2 x i32], align 4
  %3 = alloca %"class.nix::AutoCloseFD", align 4
  %4 = alloca %"class.nix::AutoCloseFD", align 4
  %5 = call i32 @pipe2(ptr noundef nonnull %2, i32 noundef 524288) #29
  %.not = icmp eq i32 %5, 0
  br i1 %.not, label %11, label %6

6:                                                ; preds = %1
  %7 = call ptr @__cxa_allocate_exception(i64 384) #29
  invoke void @_ZN3nix8SysErrorC2IJA14_cEEEDpRKT_(ptr noundef nonnull align 8 dereferenceable(380) %7, ptr noundef nonnull align 1 dereferenceable(14) @.str.11)
          to label %8 unwind label %9

8:                                                ; preds = %6
  call void @__cxa_throw(ptr nonnull %7, ptr nonnull @_ZTIN3nix8SysErrorE, ptr nonnull @_ZN3nix8SysErrorD2Ev) #30
  unreachable

9:                                                ; preds = %6
  %10 = landingpad { ptr, i32 }
          cleanup
  call void @__cxa_free_exception(ptr %7) #29
  br label %46

11:                                               ; preds = %1
  %12 = load i32, ptr %2, align 4
  call void @_ZN3nix11AutoCloseFDC1Ei(ptr noundef nonnull align 4 dereferenceable(4) %3, i32 noundef %12)
  %13 = load i32, ptr %0, align 4
  %.not.i.i = icmp eq i32 %13, -1
  br i1 %.not.i.i, label %24, label %14

14:                                               ; preds = %11
  %15 = invoke i32 @close(i32 noundef %13)
          to label %.noexc unwind label %42

.noexc:                                           ; preds = %14
  %16 = icmp eq i32 %15, -1
  br i1 %16, label %17, label %23

17:                                               ; preds = %.noexc
  %18 = call ptr @__cxa_allocate_exception(i64 384) #29
  %19 = tail call ptr @__errno_location() #31
  %20 = load i32, ptr %19, align 4
  invoke void @_ZN3nix8SysErrorC2IJA28_ciEEEiDpRKT_(ptr noundef nonnull align 8 dereferenceable(380) %18, i32 noundef %20, ptr noundef nonnull align 1 dereferenceable(28) @.str.9, ptr noundef nonnull align 4 dereferenceable(4) %0)
          to label %_ZN3nix8SysErrorC2IJA28_ciEEEDpRKT_.exit unwind label %21

_ZN3nix8SysErrorC2IJA28_ciEEEDpRKT_.exit:         ; preds = %17
  invoke void @__cxa_throw(ptr nonnull %18, ptr nonnull @_ZTIN3nix8SysErrorE, ptr nonnull @_ZN3nix8SysErrorD2Ev) #30
          to label %.noexc4 unwind label %42

.noexc4:                                          ; preds = %_ZN3nix8SysErrorC2IJA28_ciEEEDpRKT_.exit
  unreachable

21:                                               ; preds = %17
  %22 = landingpad { ptr, i32 }
          cleanup
  call void @__cxa_free_exception(ptr %18) #29
  br label %.body

23:                                               ; preds = %.noexc
  store i32 -1, ptr %0, align 4
  br label %24

24:                                               ; preds = %23, %11
  %25 = load i32, ptr %3, align 4
  store i32 %25, ptr %0, align 4
  store i32 -1, ptr %3, align 4
  call void @_ZN3nix11AutoCloseFDD1Ev(ptr noundef nonnull align 4 dereferenceable(4) %3) #29
  %26 = getelementptr inbounds i8, ptr %2, i64 4
  %27 = load i32, ptr %26, align 4
  call void @_ZN3nix11AutoCloseFDC1Ei(ptr noundef nonnull align 4 dereferenceable(4) %4, i32 noundef %27)
  %28 = getelementptr inbounds i8, ptr %0, i64 4
  %29 = load i32, ptr %28, align 4
  %.not.i.i5 = icmp eq i32 %29, -1
  br i1 %.not.i.i5, label %40, label %30

30:                                               ; preds = %24
  %31 = invoke i32 @close(i32 noundef %29)
          to label %.noexc6 unwind label %44

.noexc6:                                          ; preds = %30
  %32 = icmp eq i32 %31, -1
  br i1 %32, label %33, label %39

33:                                               ; preds = %.noexc6
  %34 = call ptr @__cxa_allocate_exception(i64 384) #29
  %35 = tail call ptr @__errno_location() #31
  %36 = load i32, ptr %35, align 4
  invoke void @_ZN3nix8SysErrorC2IJA28_ciEEEiDpRKT_(ptr noundef nonnull align 8 dereferenceable(380) %34, i32 noundef %36, ptr noundef nonnull align 1 dereferenceable(28) @.str.9, ptr noundef nonnull align 4 dereferenceable(4) %28)
          to label %_ZN3nix8SysErrorC2IJA28_ciEEEDpRKT_.exit13 unwind label %37

_ZN3nix8SysErrorC2IJA28_ciEEEDpRKT_.exit13:       ; preds = %33
  invoke void @__cxa_throw(ptr nonnull %34, ptr nonnull @_ZTIN3nix8SysErrorE, ptr nonnull @_ZN3nix8SysErrorD2Ev) #30
          to label %.noexc7 unwind label %44

.noexc7:                                          ; preds = %_ZN3nix8SysErrorC2IJA28_ciEEEDpRKT_.exit13
  unreachable

37:                                               ; preds = %33
  %38 = landingpad { ptr, i32 }
          cleanup
  call void @__cxa_free_exception(ptr %34) #29
  br label %.body8

39:                                               ; preds = %.noexc6
  store i32 -1, ptr %28, align 4
  br label %40

40:                                               ; preds = %39, %24
  %41 = load i32, ptr %4, align 4
  store i32 %41, ptr %28, align 4
  store i32 -1, ptr %4, align 4
  call void @_ZN3nix11AutoCloseFDD1Ev(ptr noundef nonnull align 4 dereferenceable(4) %4) #29
  ret void

42:                                               ; preds = %_ZN3nix8SysErrorC2IJA28_ciEEEDpRKT_.exit, %14
  %43 = landingpad { ptr, i32 }
          cleanup
  br label %.body

.body:                                            ; preds = %21, %42
  %eh.lpad-body = phi { ptr, i32 } [ %43, %42 ], [ %22, %21 ]
  call void @_ZN3nix11AutoCloseFDD1Ev(ptr noundef nonnull align 4 dereferenceable(4) %3) #29
  br label %46

44:                                               ; preds = %_ZN3nix8SysErrorC2IJA28_ciEEEDpRKT_.exit13, %30
  %45 = landingpad { ptr, i32 }
          cleanup
  br label %.body8

.body8:                                           ; preds = %37, %44
  %eh.lpad-body9 = phi { ptr, i32 } [ %45, %44 ], [ %38, %37 ]
  call void @_ZN3nix11AutoCloseFDD1Ev(ptr noundef nonnull align 4 dereferenceable(4) %4) #29
  br label %46

46:                                               ; preds = %.body8, %.body, %9
  %.pn = phi { ptr, i32 } [ %10, %9 ], [ %eh.lpad-body9, %.body8 ], [ %eh.lpad-body, %.body ]
  resume { ptr, i32 } %.pn
}